; ModuleID = '36/794.c'
source_filename = "36/794.c"
target datalayout = "e-m:e-p270:32:32-p271:32:32-p272:64:64-i64:64-f80:128-n8:16:32:64-S128"
target triple = "x86_64-pc-linux-gnu"

@.str = private unnamed_addr constant [3 x i8] c"NO\00", align 1
@.str.1 = private unnamed_addr constant [4 x i8] c"YES\00", align 1

; Function Attrs: noinline nounwind uwtable
define dso_local void @main() #0 {
  %1 = alloca i32, align 4
  %2 = alloca i32, align 4
  %3 = alloca i32, align 4
  %4 = alloca i32, align 4
  %5 = alloca i32, align 4
  %6 = alloca i32, align 4
  %7 = alloca i32, align 4
  %8 = alloca i32, align 4
  %9 = alloca [800 x i8], align 16
  %10 = alloca [500 x i8], align 16
  %11 = alloca [500 x i8], align 16
  %12 = getelementptr inbounds [800 x i8], [800 x i8]* %9, i64 0, i64 0
  %13 = call i32 (i8*, ...) bitcast (i32 (...)* @gets to i32 (i8*, ...)*)(i8* %12)
  store i32 0, i32* %3, align 4
  br label %14

14:                                               ; preds = %29, %0
  %15 = load i32, i32* %3, align 4
  %16 = sext i32 %15 to i64
  %17 = getelementptr inbounds [800 x i8], [800 x i8]* %9, i64 0, i64 %16
  %18 = load i8, i8* %17, align 1
  %19 = sext i8 %18 to i32
  %20 = icmp ne i32 %19, 32
  br i1 %20, label %21, label %32

21:                                               ; preds = %14
  %22 = load i32, i32* %3, align 4
  %23 = sext i32 %22 to i64
  %24 = getelementptr inbounds [800 x i8], [800 x i8]* %9, i64 0, i64 %23
  %25 = load i8, i8* %24, align 1
  %26 = load i32, i32* %3, align 4
  %27 = sext i32 %26 to i64
  %28 = getelementptr inbounds [500 x i8], [500 x i8]* %10, i64 0, i64 %27
  store i8 %25, i8* %28, align 1
  br label %29

29:                                               ; preds = %21
  %30 = load i32, i32* %3, align 4
  %31 = add nsw i32 %30, 1
  store i32 %31, i32* %3, align 4
  br label %14

32:                                               ; preds = %14
  %33 = load i32, i32* %3, align 4
  %34 = sext i32 %33 to i64
  %35 = getelementptr inbounds [500 x i8], [500 x i8]* %10, i64 0, i64 %34
  store i8 0, i8* %35, align 1
  %36 = load i32, i32* %3, align 4
  %37 = add nsw i32 %36, 1
  store i32 %37, i32* %3, align 4
  store i32 0, i32* %5, align 4
  br label %38

38:                                               ; preds = %57, %32
  %39 = load i32, i32* %5, align 4
  %40 = load i32, i32* %3, align 4
  %41 = add nsw i32 %39, %40
  %42 = sext i32 %41 to i64
  %43 = getelementptr inbounds [800 x i8], [800 x i8]* %9, i64 0, i64 %42
  %44 = load i8, i8* %43, align 1
  %45 = sext i8 %44 to i32
  %46 = icmp ne i32 %45, 0
  br i1 %46, label %47, label %60

47:                                               ; preds = %38
  %48 = load i32, i32* %5, align 4
  %49 = load i32, i32* %3, align 4
  %50 = add nsw i32 %48, %49
  %51 = sext i32 %50 to i64
  %52 = getelementptr inbounds [800 x i8], [800 x i8]* %9, i64 0, i64 %51
  %53 = load i8, i8* %52, align 1
  %54 = load i32, i32* %5, align 4
  %55 = sext i32 %54 to i64
  %56 = getelementptr inbounds [500 x i8], [500 x i8]* %11, i64 0, i64 %55
  store i8 %53, i8* %56, align 1
  br label %57

57:                                               ; preds = %47
  %58 = load i32, i32* %5, align 4
  %59 = add nsw i32 %58, 1
  store i32 %59, i32* %5, align 4
  br label %38

60:                                               ; preds = %38
  %61 = load i32, i32* %5, align 4
  %62 = sext i32 %61 to i64
  %63 = getelementptr inbounds [500 x i8], [500 x i8]* %11, i64 0, i64 %62
  store i8 0, i8* %63, align 1
  store i32 0, i32* %1, align 4
  %64 = load i32, i32* %3, align 4
  %65 = sub nsw i32 %64, 1
  %66 = load i32, i32* %5, align 4
  %67 = icmp eq i32 %65, %66
  br i1 %67, label %68, label %124

68:                                               ; preds = %60
  store i32 0, i32* %7, align 4
  br label %69

69:                                               ; preds = %120, %68
  %70 = load i32, i32* %7, align 4
  %71 = sext i32 %70 to i64
  %72 = getelementptr inbounds [500 x i8], [500 x i8]* %10, i64 0, i64 %71
  %73 = load i8, i8* %72, align 1
  %74 = sext i8 %73 to i32
  %75 = icmp ne i32 %74, 0
  br i1 %75, label %76, label %123

76:                                               ; preds = %69
  store i32 0, i32* %4, align 4
  br label %77

77:                                               ; preds = %101, %76
  %78 = load i32, i32* %4, align 4
  %79 = sext i32 %78 to i64
  %80 = getelementptr inbounds [500 x i8], [500 x i8]* %11, i64 0, i64 %79
  %81 = load i8, i8* %80, align 1
  %82 = sext i8 %81 to i32
  %83 = icmp ne i32 %82, 0
  br i1 %83, label %84, label %104

84:                                               ; preds = %77
  store i32 0, i32* %8, align 4
  %85 = load i32, i32* %7, align 4
  %86 = sext i32 %85 to i64
  %87 = getelementptr inbounds [500 x i8], [500 x i8]* %10, i64 0, i64 %86
  %88 = load i8, i8* %87, align 1
  %89 = sext i8 %88 to i32
  %90 = load i32, i32* %4, align 4
  %91 = sext i32 %90 to i64
  %92 = getelementptr inbounds [500 x i8], [500 x i8]* %11, i64 0, i64 %91
  %93 = load i8, i8* %92, align 1
  %94 = sext i8 %93 to i32
  %95 = icmp eq i32 %89, %94
  br i1 %95, label %96, label %100

96:                                               ; preds = %84
  %97 = load i32, i32* %4, align 4
  %98 = sext i32 %97 to i64
  %99 = getelementptr inbounds [500 x i8], [500 x i8]* %11, i64 0, i64 %98
  store i8 32, i8* %99, align 1
  store i32 1, i32* %8, align 4
  br label %104

100:                                              ; preds = %84
  br label %101

101:                                              ; preds = %100
  %102 = load i32, i32* %4, align 4
  %103 = add nsw i32 %102, 1
  store i32 %103, i32* %4, align 4
  br label %77

104:                                              ; preds = %96, %77
  %105 = load i32, i32* %8, align 4
  %106 = icmp eq i32 %105, 0
  br i1 %106, label %107, label %109

107:                                              ; preds = %104
  %108 = call i32 (i8*, ...) @printf(i8* getelementptr inbounds ([3 x i8], [3 x i8]* @.str, i64 0, i64 0))
  br label %123

109:                                              ; preds = %104
  %110 = load i32, i32* %7, align 4
  %111 = add nsw i32 %110, 1
  %112 = sext i32 %111 to i64
  %113 = getelementptr inbounds [500 x i8], [500 x i8]* %10, i64 0, i64 %112
  %114 = load i8, i8* %113, align 1
  %115 = sext i8 %114 to i32
  %116 = icmp eq i32 %115, 0
  br i1 %116, label %117, label %119

117:                                              ; preds = %109
  %118 = call i32 (i8*, ...) @printf(i8* getelementptr inbounds ([4 x i8], [4 x i8]* @.str.1, i64 0, i64 0))
  br label %119

119:                                              ; preds = %117, %109
  br label %120

120:                                              ; preds = %119
  %121 = load i32, i32* %7, align 4
  %122 = add nsw i32 %121, 1
  store i32 %122, i32* %7, align 4
  br label %69

123:                                              ; preds = %107, %69
  br label %126

124:                                              ; preds = %60
  %125 = call i32 (i8*, ...) @printf(i8* getelementptr inbounds ([3 x i8], [3 x i8]* @.str, i64 0, i64 0))
  br label %126

126:                                              ; preds = %124, %123
  ret void
}

declare dso_local i32 @gets(...) #1

declare dso_local i32 @printf(i8*, ...) #1


!llvm.module.flags = !{!0}
!llvm.ident = !{!1}

!0 = !{i32 1, !"wchar_size", i32 4}
!1 = !{!"clang version 10.0.0-4ubuntu1 "}
